target datalayout = "e-m:e-p270:32:32-p271:32:32-p272:64:64-i64:64-i128:128-f80:128-n8:16:32:64-S128"
target triple = "x86_64-pc-linux-gnu"

%struct.strbuf = type { i64, i64, ptr }
%struct.json_writer = type { %struct.strbuf, %struct.strbuf, i8 }

@.str.16 = private unnamed_addr constant [3 x i8] c"%f\00", align 1
@__const.fmt_double.fmt = private unnamed_addr constant %struct.strbuf { i64 0, i64 0, ptr @strbuf_slopbuf }, align 8
@.str.17 = private unnamed_addr constant [7 x i8] c"%%.%df\00", align 1

; Function Attrs: nounwind uwtable
define internal void @fmt_double(ptr noundef %0, i32 noundef %1, double noundef %2) #0 {
  %4 = alloca ptr, align 8
  %5 = alloca i32, align 4
  %6 = alloca double, align 8
  %7 = alloca %struct.strbuf, align 8
  store ptr %0, ptr %4, align 8, !tbaa !4
  store i32 %1, ptr %5, align 4, !tbaa !9
  store double %2, ptr %6, align 8, !tbaa !20
  %8 = load i32, ptr %5, align 4, !tbaa !9
  %9 = icmp slt i32 %8, 0
  br i1 %9, label %10, label %14

10:                                               ; preds = %3
  %11 = load ptr, ptr %4, align 8, !tbaa !4
  %12 = getelementptr inbounds nuw %struct.json_writer, ptr %11, i32 0, i32 0
  %13 = load double, ptr %6, align 8, !tbaa !20
  call void (ptr, ptr, ...) @strbuf_addf(ptr noundef %12, ptr noundef @.str.16, double noundef %13)
  br label %21

14:                                               ; preds = %3
  call void @llvm.lifetime.start.p0(i64 24, ptr %7) #7
  call void @llvm.memcpy.p0.p0.i64(ptr align 8 %7, ptr align 8 @__const.fmt_double.fmt, i64 24, i1 false)
  %15 = load i32, ptr %5, align 4, !tbaa !9
  call void (ptr, ptr, ...) @strbuf_addf(ptr noundef %7, ptr noundef @.str.17, i32 noundef %15)
  %16 = load ptr, ptr %4, align 8, !tbaa !4
  %17 = getelementptr inbounds nuw %struct.json_writer, ptr %16, i32 0, i32 0
  %18 = getelementptr inbounds nuw %struct.strbuf, ptr %7, i32 0, i32 2
  %19 = load ptr, ptr %18, align 8, !tbaa !22
  %20 = load double, ptr %6, align 8, !tbaa !20
  call void (ptr, ptr, ...) @strbuf_addf(ptr noundef %17, ptr noundef %19, double noundef %20)
  call void @strbuf_release(ptr noundef %7)
  call void @llvm.lifetime.end.p0(i64 24, ptr %7) #7
  br label %21

21:                                               ; preds = %14, %10
  ret void
}

; Function Attrs: nounwind uwtable
define dso_local void @jw_array_double(ptr noundef %0, i32 noundef %1, double noundef %2) #0 {
  %4 = alloca ptr, align 8
  %5 = alloca i32, align 4
  %6 = alloca double, align 8
  store ptr %0, ptr %4, align 8, !tbaa !4
  store i32 %1, ptr %5, align 4, !tbaa !9
  store double %2, ptr %6, align 8, !tbaa !20
  %7 = load ptr, ptr %4, align 8, !tbaa !4
  call void @array_common(ptr noundef %7)
  %8 = load ptr, ptr %4, align 8, !tbaa !4
  %9 = load i32, ptr %5, align 4, !tbaa !9
  %10 = load double, ptr %6, align 8, !tbaa !20
  call void @fmt_double(ptr noundef %8, i32 noundef %9, double noundef %10)
  ret void
}