; Function Attrs: nounwind uwtable
define dso_local void @jw_array_double(ptr noundef %0, i32 noundef %1, double noundef %2) local_unnamed_addr #3 {
  %4 = alloca %struct.strbuf, align 8
  tail call fastcc void @array_common(ptr noundef %0)
  %5 = icmp slt i32 %1, 0
  br i1 %5, label %6, label %7

6:                                                ; preds = %3
  tail call void (ptr, ptr, ...) @strbuf_addf(ptr noundef %0, ptr noundef nonnull @.str.16, double noundef %2) #8
  br label %fmt_double.exit

7:                                                ; preds = %3
  call void @llvm.lifetime.start.p0(i64 24, ptr nonnull %4) #8
  call void @llvm.memcpy.p0.p0.i64(ptr noundef nonnull align 8 dereferenceable(24) %4, ptr noundef nonnull align 8 dereferenceable(24) @__const.append_sub_jw.sb.19, i64 24, i1 false)
  call void (ptr, ptr, ...) @strbuf_addf(ptr noundef nonnull %4, ptr noundef nonnull @.str.17, i32 noundef %1) #8
  %8 = getelementptr inbounds nuw i8, ptr %4, i64 16
  %9 = load ptr, ptr %8, align 8, !tbaa !12
  call void (ptr, ptr, ...) @strbuf_addf(ptr noundef %0, ptr noundef %9, double noundef %2) #8
  call void @strbuf_release(ptr noundef nonnull %4) #8
  call void @llvm.lifetime.end.p0(i64 24, ptr nonnull %4) #8
  br label %fmt_double.exit

fmt_double.exit:                                  ; preds = %6, %7
  ret void
}